; Function Attrs: inlinehint mustprogress nounwind optsize uwtable
define internal fastcc void @_ZSt8_DestroyIPSt6vectorIZL38nanobind_init_test_stl_bind_vector_extRN8nanobind7module_EE2ElSaIS4_EES6_EvT_S8_RSaIT0_E(ptr noundef readonly %0, ptr noundef readnone %1) unnamed_addr #15 personality ptr @__gxx_personality_v0 {
  %.not5.i.i = icmp eq ptr %0, %1
  br i1 %.not5.i.i, label %_ZSt8_DestroyIPSt6vectorIZL38nanobind_init_test_stl_bind_vector_extRN8nanobind7module_EE2ElSaIS4_EEEvT_S8_.exit, label %.lr.ph.i.i

.lr.ph.i.i:                                       ; preds = %2, %_ZSt8_DestroyISt6vectorIZL38nanobind_init_test_stl_bind_vector_extRN8nanobind7module_EE2ElSaIS4_EEEvPT_.exit.i.i
  %.06.i.i = phi ptr [ %8, %_ZSt8_DestroyISt6vectorIZL38nanobind_init_test_stl_bind_vector_extRN8nanobind7module_EE2ElSaIS4_EEEvPT_.exit.i.i ], [ %0, %2 ]
  %.0.val.i.i = load ptr, ptr %.06.i.i, align 8
  %.not.i.i.i.i.i.i = icmp eq ptr %.0.val.i.i, null
  br i1 %.not.i.i.i.i.i.i, label %_ZSt8_DestroyISt6vectorIZL38nanobind_init_test_stl_bind_vector_extRN8nanobind7module_EE2ElSaIS4_EEEvPT_.exit.i.i, label %3

3:                                                ; preds = %.lr.ph.i.i
  %4 = getelementptr i8, ptr %.06.i.i, i64 16
  %.0.val4.i.i = load ptr, ptr %4, align 8
  %5 = ptrtoint ptr %.0.val4.i.i to i64
  %6 = ptrtoint ptr %.0.val.i.i to i64
  %7 = sub i64 %5, %6
  tail call void @_ZdlPvm(ptr noundef nonnull %.0.val.i.i, i64 noundef %7) #29
  br label %_ZSt8_DestroyISt6vectorIZL38nanobind_init_test_stl_bind_vector_extRN8nanobind7module_EE2ElSaIS4_EEEvPT_.exit.i.i

_ZSt8_DestroyISt6vectorIZL38nanobind_init_test_stl_bind_vector_extRN8nanobind7module_EE2ElSaIS4_EEEvPT_.exit.i.i: ; preds = %3, %.lr.ph.i.i
  %8 = getelementptr inbounds nuw i8, ptr %.06.i.i, i64 24
  %.not.i.i = icmp eq ptr %8, %1
  br i1 %.not.i.i, label %_ZSt8_DestroyIPSt6vectorIZL38nanobind_init_test_stl_bind_vector_extRN8nanobind7module_EE2ElSaIS4_EEEvT_S8_.exit, label %.lr.ph.i.i, !llvm.loop !326

_ZSt8_DestroyIPSt6vectorIZL38nanobind_init_test_stl_bind_vector_extRN8nanobind7module_EE2ElSaIS4_EEEvT_S8_.exit: ; preds = %_ZSt8_DestroyISt6vectorIZL38nanobind_init_test_stl_bind_vector_extRN8nanobind7module_EE2ElSaIS4_EEEvPT_.exit.i.i, %2
  ret void
}